; Function Attrs: mustprogress norecurse uwtable
define internal fastcc noundef zeroext i1 @_ZL15TestBadExponentv() unnamed_addr #0 personality ptr @__gxx_personality_v0 {
  %1 = alloca %"class.std::unique_ptr", align 8
  call void @llvm.lifetime.start.p0(i64 8, ptr nonnull %1) #12
  %2 = tail call ptr @RSA_public_key_from_bytes(ptr noundef nonnull @_ZL16kExponent1RSAKey, i64 noundef 268)
  store ptr %2, ptr %1, align 8, !tbaa !10
  %.not = icmp eq ptr %2, null
  br i1 %.not, label %3, label %6

3:                                                ; preds = %0
  invoke void @ERR_clear_error()
          to label %_ZNSt10unique_ptrI6rsa_st14OpenSSLDeleterIS0_XadL_Z8RSA_freeEEEED2Ev.exit unwind label %4

4:                                                ; preds = %3
  %5 = landingpad { ptr, i32 }
          cleanup
  call void @_ZNSt10unique_ptrI6rsa_st14OpenSSLDeleterIS0_XadL_Z8RSA_freeEEEED2Ev(ptr noundef nonnull align 8 dereferenceable(8) %1) #12
  call void @llvm.lifetime.end.p0(i64 8, ptr nonnull %1) #12
  resume { ptr, i32 } %5

6:                                                ; preds = %0
  %7 = load ptr, ptr @stderr, align 8, !tbaa !13
  %8 = tail call i64 @fwrite(ptr nonnull @.str.25, i64 48, i64 1, ptr %7) #13
  invoke void @RSA_free(ptr noundef nonnull %2)
          to label %_ZNSt10unique_ptrI6rsa_st14OpenSSLDeleterIS0_XadL_Z8RSA_freeEEEED2Ev.exit unwind label %9

9:                                                ; preds = %6
  %10 = landingpad { ptr, i32 }
          catch ptr null
  %11 = extractvalue { ptr, i32 } %10, 0
  tail call void @__clang_call_terminate(ptr %11) #14
  unreachable

_ZNSt10unique_ptrI6rsa_st14OpenSSLDeleterIS0_XadL_Z8RSA_freeEEEED2Ev.exit: ; preds = %3, %6
  call void @llvm.lifetime.end.p0(i64 8, ptr nonnull %1) #12
  ret i1 %.not
}